; Function Attrs: mustprogress nofree norecurse nosync nounwind willreturn memory(argmem: readwrite) uwtable
define noundef nonnull align 8 dereferenceable(128) ptr @_ZN32pxrInternal_v0_24__pxrReserved__10GfMatrix4d12SetTranslateERKNS_7GfVec3dE(ptr noundef nonnull returned writeonly align 8 dereferenceable(128) %0, ptr nocapture noundef nonnull readonly align 8 dereferenceable(24) %1) local_unnamed_addr #2 align 2 {
  store double 1.000000e+00, ptr %0, align 8
  %3 = getelementptr inbounds i8, ptr %0, i64 8
  %4 = getelementptr inbounds i8, ptr %0, i64 40
  tail call void @llvm.memset.p0.i64(ptr noundef nonnull align 8 dereferenceable(32) %3, i8 0, i64 32, i1 false)
  store double 1.000000e+00, ptr %4, align 8
  %5 = getelementptr inbounds i8, ptr %0, i64 48
  %6 = getelementptr inbounds i8, ptr %0, i64 80
  tail call void @llvm.memset.p0.i64(ptr noundef nonnull align 8 dereferenceable(32) %5, i8 0, i64 32, i1 false)
  store double 1.000000e+00, ptr %6, align 8
  %7 = getelementptr inbounds i8, ptr %0, i64 88
  store double 0.000000e+00, ptr %7, align 8
  %8 = load double, ptr %1, align 8
  %9 = getelementptr inbounds i8, ptr %0, i64 96
  store double %8, ptr %9, align 8
  %10 = getelementptr inbounds i8, ptr %1, i64 8
  %11 = load double, ptr %10, align 8
  %12 = getelementptr inbounds i8, ptr %0, i64 104
  store double %11, ptr %12, align 8
  %13 = getelementptr inbounds i8, ptr %1, i64 16
  %14 = load double, ptr %13, align 8
  %15 = getelementptr inbounds i8, ptr %0, i64 112
  store double %14, ptr %15, align 8
  %16 = getelementptr inbounds i8, ptr %0, i64 120
  store double 1.000000e+00, ptr %16, align 8
  ret ptr %0
}